; Function Attrs: mustprogress nounwind uwtable
define void @_ZN22PreprocessingAtomTypesD2Ev(ptr noundef nonnull align 8 dereferenceable(8) %0) unnamed_addr #10 align 2 {
  %2 = load ptr, ptr %0, align 8, !tbaa !4
  %.not.i = icmp eq ptr %2, null
  br i1 %.not.i, label %_ZNSt10unique_ptrIN22PreprocessingAtomTypes4ImplESt14default_deleteIS1_EED2Ev.exit, label %3

3:                                                ; preds = %1
  tail call void @_ZNKSt14default_deleteIN22PreprocessingAtomTypes4ImplEEclEPS1_(ptr noundef nonnull align 8 dereferenceable(8) %0, ptr noundef nonnull %2)
  br label %_ZNSt10unique_ptrIN22PreprocessingAtomTypes4ImplESt14default_deleteIS1_EED2Ev.exit

_ZNSt10unique_ptrIN22PreprocessingAtomTypes4ImplESt14default_deleteIS1_EED2Ev.exit: ; preds = %1, %3
  store ptr null, ptr %0, align 8, !tbaa !4
  ret void
}